target datalayout = "e-m:e-p270:32:32-p271:32:32-p272:64:64-i64:64-i128:128-f80:128-n8:16:32:64-S128"
target triple = "x86_64-pc-linux-gnu"

%struct._packet_info = type { ptr, ptr, i32, i32, %struct.nstime_t, %struct.nstime_t, %struct.nstime_t, i32, ptr, ptr, ptr, ptr, %struct._address, %struct._address, %struct._address, %struct._address, %struct._address, %struct._address, i32, ptr, i32, %struct.anon, i32, i32, i32, i32, ptr, i32, ptr, ptr, i16, i16, i32, i32, i16, i32, i32, ptr, ptr, ptr, i8, i8, i16, i16, i16, i32, i16, i16, ptr, ptr, ptr, ptr, ptr, i32 }
%struct.nstime_t = type { i64, i32 }
%struct._address = type { i32, i32, ptr, ptr }
%struct.anon = type { i8, [3 x i8] }
%struct.__va_list_tag = type { i32, i32, ptr, ptr }

@write_pdu_label_and_info.info_buffer = internal global [256 x i8] zeroinitializer, align 16
@.str.1162 = private unnamed_addr constant [3 x i8] c"%s\00", align 1

; Function Attrs: nounwind uwtable
define internal void @write_pdu_label_and_info(ptr noundef %0, ptr noundef %1, ptr noundef %2, ptr noundef %3, ...) #0 {
  %5 = alloca ptr, align 8
  %6 = alloca ptr, align 8
  %7 = alloca ptr, align 8
  %8 = alloca ptr, align 8
  %9 = alloca [1 x %struct.__va_list_tag], align 16
  store ptr %0, ptr %5, align 8
  store ptr %1, ptr %6, align 8
  store ptr %2, ptr %7, align 8
  store ptr %3, ptr %8, align 8
  %10 = load ptr, ptr %5, align 8
  %11 = icmp eq ptr %10, null
  br i1 %11, label %12, label %19

12:                                               ; preds = %4
  %13 = load ptr, ptr %6, align 8
  %14 = icmp eq ptr %13, null
  br i1 %14, label %15, label %19

15:                                               ; preds = %12
  %16 = load ptr, ptr %7, align 8
  %17 = icmp eq ptr %16, null
  br i1 %17, label %18, label %19

18:                                               ; preds = %15
  br label %41

19:                                               ; preds = %15, %12, %4
  %20 = getelementptr inbounds [1 x %struct.__va_list_tag], ptr %9, i64 0, i64 0
  call void @llvm.va_start(ptr %20)
  %21 = load ptr, ptr %8, align 8
  %22 = getelementptr inbounds [1 x %struct.__va_list_tag], ptr %9, i64 0, i64 0
  %23 = call i32 @vsnprintf(ptr noundef @write_pdu_label_and_info.info_buffer, i64 noundef 256, ptr noundef %21, ptr noundef %22) #9
  %24 = getelementptr inbounds [1 x %struct.__va_list_tag], ptr %9, i64 0, i64 0
  call void @llvm.va_end(ptr %24)
  %25 = load ptr, ptr %7, align 8
  %26 = icmp ne ptr %25, null
  br i1 %26, label %27, label %31

27:                                               ; preds = %19
  %28 = load ptr, ptr %7, align 8
  %29 = getelementptr inbounds %struct._packet_info, ptr %28, i32 0, i32 1
  %30 = load ptr, ptr %29, align 8
  call void @col_append_str(ptr noundef %30, i32 noundef 25, ptr noundef @write_pdu_label_and_info.info_buffer)
  br label %31

31:                                               ; preds = %27, %19
  %32 = load ptr, ptr %5, align 8
  %33 = icmp ne ptr %32, null
  br i1 %33, label %34, label %36

34:                                               ; preds = %31
  %35 = load ptr, ptr %5, align 8
  call void (ptr, ptr, ...) @proto_item_append_text(ptr noundef %35, ptr noundef @.str.1162, ptr noundef @write_pdu_label_and_info.info_buffer)
  br label %36

36:                                               ; preds = %34, %31
  %37 = load ptr, ptr %6, align 8
  %38 = icmp ne ptr %37, null
  br i1 %38, label %39, label %41

39:                                               ; preds = %36
  %40 = load ptr, ptr %6, align 8
  call void (ptr, ptr, ...) @proto_item_append_text(ptr noundef %40, ptr noundef @.str.1162, ptr noundef @write_pdu_label_and_info.info_buffer)
  br label %41

41:                                               ; preds = %39, %36, %18
  ret void
}