; Function Attrs: nounwind uwtable
define internal void @write_pdu_label_and_info(ptr noundef %0, ptr noundef %1, ptr noundef readonly %2, ptr noundef readonly captures(none) %3, ...) unnamed_addr #0 {
  %5 = alloca [1 x %struct.__va_list_tag], align 16
  %6 = icmp eq ptr %0, null
  %7 = icmp eq ptr %1, null
  %or.cond = and i1 %6, %7
  %8 = icmp eq ptr %2, null
  %or.cond3 = and i1 %or.cond, %8
  br i1 %or.cond3, label %18, label %9

9:                                                ; preds = %4
  call void @llvm.va_start.p0(ptr nonnull %5)
  %10 = call i32 @vsnprintf(ptr noundef nonnull @write_pdu_label_and_info.info_buffer, i64 noundef 256, ptr noundef %3, ptr noundef nonnull %5) #12
  call void @llvm.va_end.p0(ptr nonnull %5)
  br i1 %8, label %14, label %11

11:                                               ; preds = %9
  %12 = getelementptr inbounds nuw i8, ptr %2, i64 8
  %13 = load ptr, ptr %12, align 8
  call void @col_append_str(ptr noundef %13, i32 noundef 25, ptr noundef nonnull @write_pdu_label_and_info.info_buffer) #12
  br label %14

14:                                               ; preds = %11, %9
  br i1 %6, label %16, label %15

15:                                               ; preds = %14
  call void (ptr, ptr, ...) @proto_item_append_text(ptr noundef nonnull %0, ptr noundef nonnull @.str.1162, ptr noundef nonnull @write_pdu_label_and_info.info_buffer) #12
  br label %16

16:                                               ; preds = %15, %14
  br i1 %7, label %18, label %17

17:                                               ; preds = %16
  call void (ptr, ptr, ...) @proto_item_append_text(ptr noundef nonnull %1, ptr noundef nonnull @.str.1162, ptr noundef nonnull @write_pdu_label_and_info.info_buffer) #12
  br label %18

18:                                               ; preds = %4, %17, %16
  ret void
}